; ModuleID = '7/212.c'
source_filename = "7/212.c"
target datalayout = "e-m:e-p270:32:32-p271:32:32-p272:64:64-i64:64-f80:128-n8:16:32:64-S128"
target triple = "x86_64-pc-linux-gnu"

; Function Attrs: noinline nounwind uwtable
define dso_local i32 @main() #0 {
  %1 = alloca i32, align 4
  %2 = alloca [257 x i8], align 16
  %3 = alloca [257 x i8], align 16
  %4 = alloca [257 x i8], align 16
  %5 = alloca i32, align 4
  %6 = alloca i32, align 4
  %7 = alloca i32, align 4
  %8 = alloca i32, align 4
  %9 = alloca i32, align 4
  store i32 0, i32* %1, align 4
  %10 = bitcast [257 x i8]* %2 to i8*
  call void @llvm.memset.p0i8.i64(i8* align 16 %10, i8 0, i64 257, i1 false)
  %11 = bitcast [257 x i8]* %3 to i8*
  call void @llvm.memset.p0i8.i64(i8* align 16 %11, i8 0, i64 257, i1 false)
  %12 = bitcast [257 x i8]* %4 to i8*
  call void @llvm.memset.p0i8.i64(i8* align 16 %12, i8 0, i64 257, i1 false)
  store i32 0, i32* %5, align 4
  store i32 0, i32* %6, align 4
  store i32 0, i32* %7, align 4
  %13 = getelementptr inbounds [257 x i8], [257 x i8]* %2, i64 0, i64 0
  %14 = call i32 (i8*, ...) bitcast (i32 (...)* @gets to i32 (i8*, ...)*)(i8* %13)
  %15 = getelementptr inbounds [257 x i8], [257 x i8]* %3, i64 0, i64 0
  %16 = call i32 (i8*, ...) bitcast (i32 (...)* @gets to i32 (i8*, ...)*)(i8* %15)
  %17 = getelementptr inbounds [257 x i8], [257 x i8]* %4, i64 0, i64 0
  %18 = call i32 (i8*, ...) bitcast (i32 (...)* @gets to i32 (i8*, ...)*)(i8* %17)
  store i32 0, i32* %8, align 4
  %19 = getelementptr inbounds [257 x i8], [257 x i8]* %3, i64 0, i64 0
  %20 = call i64 @strlen(i8* %19) #4
  %21 = trunc i64 %20 to i32
  store i32 %21, i32* %9, align 4
  store i32 0, i32* %5, align 4
  br label %22

22:                                               ; preds = %97, %0
  %23 = load i32, i32* %5, align 4
  %24 = icmp slt i32 %23, 257
  br i1 %24, label %25, label %100

25:                                               ; preds = %22
  %26 = load i32, i32* %5, align 4
  %27 = load i32, i32* %9, align 4
  %28 = add nsw i32 %26, %27
  %29 = sub nsw i32 %28, 1
  %30 = sext i32 %29 to i64
  %31 = getelementptr inbounds [257 x i8], [257 x i8]* %2, i64 0, i64 %30
  %32 = load i8, i8* %31, align 1
  %33 = sext i8 %32 to i32
  %34 = icmp eq i32 %33, 0
  br i1 %34, label %35, label %36

35:                                               ; preds = %25
  br label %100

36:                                               ; preds = %25
  %37 = load i32, i32* %5, align 4
  store i32 %37, i32* %6, align 4
  br label %38

38:                                               ; preds = %63, %36
  %39 = load i32, i32* %6, align 4
  %40 = load i32, i32* %5, align 4
  %41 = load i32, i32* %9, align 4
  %42 = add nsw i32 %40, %41
  %43 = icmp slt i32 %39, %42
  br i1 %43, label %44, label %66

44:                                               ; preds = %38
  %45 = load i32, i32* %6, align 4
  %46 = sext i32 %45 to i64
  %47 = getelementptr inbounds [257 x i8], [257 x i8]* %2, i64 0, i64 %46
  %48 = load i8, i8* %47, align 1
  %49 = sext i8 %48 to i32
  %50 = load i32, i32* %6, align 4
  %51 = load i32, i32* %5, align 4
  %52 = sub nsw i32 %50, %51
  %53 = sext i32 %52 to i64
  %54 = getelementptr inbounds [257 x i8], [257 x i8]* %3, i64 0, i64 %53
  %55 = load i8, i8* %54, align 1
  %56 = sext i8 %55 to i32
  %57 = icmp eq i32 %49, %56
  br i1 %57, label %58, label %61

58:                                               ; preds = %44
  %59 = load i32, i32* %7, align 4
  %60 = add nsw i32 %59, 1
  store i32 %60, i32* %7, align 4
  br label %62

61:                                               ; preds = %44
  store i32 0, i32* %7, align 4
  br label %62

62:                                               ; preds = %61, %58
  br label %63

63:                                               ; preds = %62
  %64 = load i32, i32* %6, align 4
  %65 = add nsw i32 %64, 1
  store i32 %65, i32* %6, align 4
  br label %38

66:                                               ; preds = %38
  %67 = load i32, i32* %7, align 4
  %68 = load i32, i32* %9, align 4
  %69 = icmp eq i32 %67, %68
  br i1 %69, label %70, label %92

70:                                               ; preds = %66
  store i32 1, i32* %8, align 4
  %71 = load i32, i32* %5, align 4
  store i32 %71, i32* %6, align 4
  br label %72

72:                                               ; preds = %88, %70
  %73 = load i32, i32* %6, align 4
  %74 = load i32, i32* %5, align 4
  %75 = load i32, i32* %9, align 4
  %76 = add nsw i32 %74, %75
  %77 = icmp slt i32 %73, %76
  br i1 %77, label %78, label %91

78:                                               ; preds = %72
  %79 = load i32, i32* %6, align 4
  %80 = load i32, i32* %5, align 4
  %81 = sub nsw i32 %79, %80
  %82 = sext i32 %81 to i64
  %83 = getelementptr inbounds [257 x i8], [257 x i8]* %4, i64 0, i64 %82
  %84 = load i8, i8* %83, align 1
  %85 = load i32, i32* %6, align 4
  %86 = sext i32 %85 to i64
  %87 = getelementptr inbounds [257 x i8], [257 x i8]* %2, i64 0, i64 %86
  store i8 %84, i8* %87, align 1
  br label %88

88:                                               ; preds = %78
  %89 = load i32, i32* %6, align 4
  %90 = add nsw i32 %89, 1
  store i32 %90, i32* %6, align 4
  br label %72

91:                                               ; preds = %72
  br label %92

92:                                               ; preds = %91, %66
  %93 = load i32, i32* %8, align 4
  %94 = icmp ne i32 %93, 0
  br i1 %94, label %95, label %96

95:                                               ; preds = %92
  br label %100

96:                                               ; preds = %92
  br label %97

97:                                               ; preds = %96
  %98 = load i32, i32* %5, align 4
  %99 = add nsw i32 %98, 1
  store i32 %99, i32* %5, align 4
  br label %22

100:                                              ; preds = %95, %35, %22
  %101 = getelementptr inbounds [257 x i8], [257 x i8]* %2, i64 0, i64 0
  %102 = call i32 @puts(i8* %101)
  ret i32 0
}

; Function Attrs: argmemonly nounwind willreturn
declare void @llvm.memset.p0i8.i64(i8* nocapture writeonly, i8, i64, i1 immarg) #1

declare dso_local i32 @gets(...) #2

; Function Attrs: nounwind readonly
declare dso_local i64 @strlen(i8*) #3

declare dso_local i32 @puts(i8*) #2


!llvm.module.flags = !{!0}
!llvm.ident = !{!1}

!0 = !{i32 1, !"wchar_size", i32 4}
!1 = !{!"clang version 10.0.0-4ubuntu1 "}
